; Function Attrs: mustprogress nofree nounwind willreturn memory(write) uwtable
define internal float @avifToLinearSRGB(float noundef %0) #5 {
  %2 = fcmp olt float %0, 0.000000e+00
  br i1 %2, label %13, label %3

3:                                                ; preds = %1
  %4 = fcmp olt float %0, 0x3FA41E42C0000000
  br i1 %4, label %5, label %7

5:                                                ; preds = %3
  %6 = fdiv float %0, 0x4029D70A40000000
  br label %13

7:                                                ; preds = %3
  %8 = fcmp olt float %0, 1.000000e+00
  br i1 %8, label %9, label %13

9:                                                ; preds = %7
  %10 = fadd float %0, 0x3FAC2A5D60000000
  %11 = fdiv float %10, 0x3FF0E152E0000000
  %12 = tail call float @powf(float noundef %11, float noundef 0x4003333340000000) #9
  br label %13

13:                                               ; preds = %7, %1, %9, %5
  %.0 = phi float [ %6, %5 ], [ %12, %9 ], [ 0.000000e+00, %1 ], [ 1.000000e+00, %7 ]
  ret float %.0
}